	.section	__TEXT,__text,regular,pure_instructions
	.build_version macos, 14, 0	sdk_version 14, 2
	.file	1 "/Library/Developer/CommandLineTools/SDKs/MacOSX.sdk/usr/include/c++/v1" "ios"
	.file	2 "/Library/Developer/CommandLineTools/usr/lib/clang/15.0.0/include" "stddef.h"
	.file	3 "/Library/Developer/CommandLineTools/SDKs/MacOSX.sdk/usr/include/c++/v1" "__locale"
	.file	4 "/Library/Developer/CommandLineTools/SDKs/MacOSX.sdk/usr/include/c++/v1/__string" "char_traits.h"
	.file	5 "/Library/Developer/CommandLineTools/SDKs/MacOSX.sdk/usr/include/c++/v1/__memory" "allocator.h"
	.file	6 "/Library/Developer/CommandLineTools/SDKs/MacOSX.sdk/usr/include/c++/v1/__memory" "allocator_traits.h"
	.file	7 "/Library/Developer/CommandLineTools/SDKs/MacOSX.sdk/usr/include/c++/v1" "string"
	.file	8 "/Library/Developer/CommandLineTools/SDKs/MacOSX.sdk/usr/include/c++/v1/__memory" "compressed_pair.h"
	.file	9 "/Library/Developer/CommandLineTools/SDKs/MacOSX.sdk/usr/include/c++/v1" "string_view"
	.file	10 "/Library/Developer/CommandLineTools/SDKs/MacOSX.sdk/usr/include/c++/v1/__fwd" "string_view.h"
	.file	11 "/Library/Developer/CommandLineTools/SDKs/MacOSX.sdk/usr/include/c++/v1/__type_traits" "integral_constant.h"
	.file	12 "/Library/Developer/CommandLineTools/SDKs/MacOSX.sdk/usr/include/c++/v1/__fwd" "string.h"
	.file	13 "/Library/Developer/CommandLineTools/SDKs/MacOSX.sdk/usr/include/c++/v1/__memory" "shared_ptr.h"
	.file	14 "/Library/Developer/CommandLineTools/SDKs/MacOSX.sdk/usr/include/c++/v1" "mutex"
	.file	15 "/Library/Developer/CommandLineTools/SDKs/MacOSX.sdk/usr/include/sys/_types" "_int32_t.h"
	.file	16 "/Library/Developer/CommandLineTools/SDKs/MacOSX.sdk/usr/include/i386" "_types.h"
	.file	17 "/Library/Developer/CommandLineTools/SDKs/MacOSX.sdk/usr/include/sys/_types" "_mbstate_t.h"
	.file	18 "/Library/Developer/CommandLineTools/SDKs/MacOSX.sdk/usr/include/c++/v1" "__mbstate_t.h"
	.file	19 "/Library/Developer/CommandLineTools/SDKs/MacOSX.sdk/usr/include" "_ctype.h"
	.file	20 "/Library/Developer/CommandLineTools/SDKs/MacOSX.sdk/usr/include/c++/v1" "cctype"
	.file	21 "/Library/Developer/CommandLineTools/SDKs/MacOSX.sdk/usr/include/sys/_types" "_int8_t.h"
	.file	22 "/Library/Developer/CommandLineTools/SDKs/MacOSX.sdk/usr/include/c++/v1" "cstdint"
	.file	23 "/Library/Developer/CommandLineTools/SDKs/MacOSX.sdk/usr/include/sys/_types" "_int16_t.h"
	.file	24 "/Library/Developer/CommandLineTools/SDKs/MacOSX.sdk/usr/include/sys/_types" "_int64_t.h"
	.file	25 "/Library/Developer/CommandLineTools/SDKs/MacOSX.sdk/usr/include/_types" "_uint8_t.h"
	.file	26 "/Library/Developer/CommandLineTools/SDKs/MacOSX.sdk/usr/include/_types" "_uint16_t.h"
	.file	27 "/Library/Developer/CommandLineTools/SDKs/MacOSX.sdk/usr/include/_types" "_uint32_t.h"
	.file	28 "/Library/Developer/CommandLineTools/SDKs/MacOSX.sdk/usr/include/_types" "_uint64_t.h"
	.file	29 "/Library/Developer/CommandLineTools/SDKs/MacOSX.sdk/usr/include" "stdint.h"
	.file	30 "/Library/Developer/CommandLineTools/SDKs/MacOSX.sdk/usr/include/sys/_types" "_intptr_t.h"
	.file	31 "/Library/Developer/CommandLineTools/SDKs/MacOSX.sdk/usr/include/sys/_types" "_uintptr_t.h"
	.file	32 "/Library/Developer/CommandLineTools/SDKs/MacOSX.sdk/usr/include/_types" "_intmax_t.h"
	.file	33 "/Library/Developer/CommandLineTools/SDKs/MacOSX.sdk/usr/include/_types" "_uintmax_t.h"
	.file	34 "/Library/Developer/CommandLineTools/SDKs/MacOSX.sdk/usr/include/c++/v1" "stddef.h"
	.file	35 "/Library/Developer/CommandLineTools/SDKs/MacOSX.sdk/usr/include/c++/v1" "cstddef"
	.file	36 "/Library/Developer/CommandLineTools/SDKs/MacOSX.sdk/usr/include/c++/v1" "cstdlib"
	.file	37 "/Library/Developer/CommandLineTools/SDKs/MacOSX.sdk/usr/include" "stdlib.h"
	.file	38 "/Library/Developer/CommandLineTools/SDKs/MacOSX.sdk/usr/include/malloc" "_malloc.h"
	.file	39 "/Library/Developer/CommandLineTools/SDKs/MacOSX.sdk/usr/include/c++/v1" "stdlib.h"
	.file	40 "/Library/Developer/CommandLineTools/SDKs/MacOSX.sdk/usr/include/c++/v1" "cstring"
	.file	41 "/Library/Developer/CommandLineTools/SDKs/MacOSX.sdk/usr/include" "string.h"
	.file	42 "/Library/Developer/CommandLineTools/SDKs/MacOSX.sdk/usr/include/c++/v1" "string.h"
	.file	43 "/Library/Developer/CommandLineTools/SDKs/MacOSX.sdk/usr/include/sys/_types" "_clock_t.h"
	.file	44 "/Library/Developer/CommandLineTools/SDKs/MacOSX.sdk/usr/include/c++/v1" "ctime"
	.file	45 "/Library/Developer/CommandLineTools/SDKs/MacOSX.sdk/usr/include/sys/_types" "_time_t.h"
	.file	46 "/Library/Developer/CommandLineTools/SDKs/MacOSX.sdk/usr/include" "time.h"
	.file	47 "/Library/Developer/CommandLineTools/SDKs/MacOSX.sdk/usr/include/c++/v1" "math.h"
	.file	48 "/Library/Developer/CommandLineTools/SDKs/MacOSX.sdk/usr/include/c++/v1" "cmath"
	.file	49 "/Library/Developer/CommandLineTools/SDKs/MacOSX.sdk/usr/include" "math.h"
	.file	50 "/Library/Developer/CommandLineTools/SDKs/MacOSX.sdk/usr/include" "_stdio.h"
	.file	51 "/Library/Developer/CommandLineTools/SDKs/MacOSX.sdk/usr/include/sys" "_types.h"
	.file	52 "/Library/Developer/CommandLineTools/SDKs/MacOSX.sdk/usr/include/c++/v1" "cstdio"
	.file	53 "/Library/Developer/CommandLineTools/SDKs/MacOSX.sdk/usr/include" "stdio.h"
	.file	54 "/Library/Developer/CommandLineTools/SDKs/MacOSX.sdk/usr/include/sys/_types" "_wint_t.h"
	.file	55 "/Library/Developer/CommandLineTools/SDKs/MacOSX.sdk/usr/include/c++/v1" "cwctype"
	.file	56 "/Library/Developer/CommandLineTools/SDKs/MacOSX.sdk/usr/include" "_types.h"
	.file	57 "/Library/Developer/CommandLineTools/SDKs/MacOSX.sdk/usr/include/_types" "_wctrans_t.h"
	.file	58 "/Library/Developer/CommandLineTools/SDKs/MacOSX.sdk/usr/include/_types" "_wctype_t.h"
	.file	59 "/Library/Developer/CommandLineTools/SDKs/MacOSX.sdk/usr/include" "_wctype.h"
	.file	60 "/Library/Developer/CommandLineTools/SDKs/MacOSX.sdk/usr/include" "wctype.h"
	.file	61 "/Library/Developer/CommandLineTools/SDKs/MacOSX.sdk/usr/include/c++/v1" "cwchar"
	.file	62 "/Library/Developer/CommandLineTools/SDKs/MacOSX.sdk/usr/include" "wchar.h"
	.file	63 "/Library/Developer/CommandLineTools/SDKs/MacOSX.sdk/usr/include/c++/v1" "wchar.h"
	.file	64 "/Library/Developer/CommandLineTools/SDKs/MacOSX.sdk/usr/include/sys/_types" "_va_list.h"
	.file	65 "/Library/Developer/CommandLineTools/SDKs/MacOSX.sdk/usr/include/c++/v1" "cstdarg"
	.file	66 "/Users/mac/Library/Mobile Documents/com~apple~CloudDocs/Washington/Interview-Prep/Baekjoon" "10869.cpp"
	.globl	_main                           ## -- Begin function main
	.p2align	4, 0x90
_main:                                  ## @main
Lfunc_begin0:
	.loc	66 4 0                          ## 10869.cpp:4:0
	.cfi_startproc
## %bb.0:
	pushq	%rbp
	.cfi_def_cfa_offset 16
	.cfi_offset %rbp, -16
	movq	%rsp, %rbp
	.cfi_def_cfa_register %rbp
	subq	$32, %rsp
Ltmp0:
	.loc	66 7 9 prologue_end             ## 10869.cpp:7:9
	movq	__ZNSt3__13cinE@GOTPCREL(%rip), %rdi
	leaq	-4(%rbp), %rsi
	callq	__ZNSt3__113basic_istreamIcNS_11char_traitsIcEEErsERi
	.loc	66 8 9                          ## 10869.cpp:8:9
	movq	__ZNSt3__13cinE@GOTPCREL(%rip), %rdi
	leaq	-8(%rbp), %rsi
	callq	__ZNSt3__113basic_istreamIcNS_11char_traitsIcEEErsERi
	.loc	66 10 15                        ## 10869.cpp:10:15
	movl	-4(%rbp), %eax
	.loc	66 10 17 is_stmt 0              ## 10869.cpp:10:17
	addl	-8(%rbp), %eax
	.loc	66 10 9                         ## 10869.cpp:10:9
	movl	%eax, -12(%rbp)
	.loc	66 11 15 is_stmt 1              ## 10869.cpp:11:15
	movl	-4(%rbp), %eax
	.loc	66 11 17 is_stmt 0              ## 10869.cpp:11:17
	subl	-8(%rbp), %eax
	.loc	66 11 9                         ## 10869.cpp:11:9
	movl	%eax, -16(%rbp)
	.loc	66 12 15 is_stmt 1              ## 10869.cpp:12:15
	movl	-4(%rbp), %eax
	.loc	66 12 17 is_stmt 0              ## 10869.cpp:12:17
	imull	-8(%rbp), %eax
	.loc	66 12 9                         ## 10869.cpp:12:9
	movl	%eax, -20(%rbp)
	.loc	66 13 15 is_stmt 1              ## 10869.cpp:13:15
	movl	-4(%rbp), %eax
	.loc	66 13 17 is_stmt 0              ## 10869.cpp:13:17
	cltd
	idivl	-8(%rbp)
	.loc	66 13 9                         ## 10869.cpp:13:9
	movl	%eax, -24(%rbp)
	.loc	66 14 15 is_stmt 1              ## 10869.cpp:14:15
	movl	-4(%rbp), %eax
	.loc	66 14 17 is_stmt 0              ## 10869.cpp:14:17
	cltd
	idivl	-8(%rbp)
	.loc	66 14 9                         ## 10869.cpp:14:9
	movl	%edx, -28(%rbp)
	.loc	66 15 13 is_stmt 1              ## 10869.cpp:15:13
	movl	-12(%rbp), %esi
	.loc	66 15 10 is_stmt 0              ## 10869.cpp:15:10
	movq	__ZNSt3__14coutE@GOTPCREL(%rip), %rdi
	callq	__ZNSt3__113basic_ostreamIcNS_11char_traitsIcEEElsEi
	movq	%rax, %rdi
	.loc	66 15 17                        ## 10869.cpp:15:17
	leaq	__ZNSt3__14endlB7v160006IcNS_11char_traitsIcEEEERNS_13basic_ostreamIT_T0_EES7_(%rip), %rsi
	callq	__ZNSt3__113basic_ostreamIcNS_11char_traitsIcEEElsB7v160006EPFRS3_S4_E
	.loc	66 16 13 is_stmt 1              ## 10869.cpp:16:13
	movl	-16(%rbp), %esi
	.loc	66 16 10 is_stmt 0              ## 10869.cpp:16:10
	movq	__ZNSt3__14coutE@GOTPCREL(%rip), %rdi
	callq	__ZNSt3__113basic_ostreamIcNS_11char_traitsIcEEElsEi
	movq	%rax, %rdi
	.loc	66 16 17                        ## 10869.cpp:16:17
	leaq	__ZNSt3__14endlB7v160006IcNS_11char_traitsIcEEEERNS_13basic_ostreamIT_T0_EES7_(%rip), %rsi
	callq	__ZNSt3__113basic_ostreamIcNS_11char_traitsIcEEElsB7v160006EPFRS3_S4_E
	.loc	66 17 13 is_stmt 1              ## 10869.cpp:17:13
	movl	-20(%rbp), %esi
	.loc	66 17 10 is_stmt 0              ## 10869.cpp:17:10
	movq	__ZNSt3__14coutE@GOTPCREL(%rip), %rdi
	callq	__ZNSt3__113basic_ostreamIcNS_11char_traitsIcEEElsEi
	movq	%rax, %rdi
	.loc	66 17 17                        ## 10869.cpp:17:17
	leaq	__ZNSt3__14endlB7v160006IcNS_11char_traitsIcEEEERNS_13basic_ostreamIT_T0_EES7_(%rip), %rsi
	callq	__ZNSt3__113basic_ostreamIcNS_11char_traitsIcEEElsB7v160006EPFRS3_S4_E
	.loc	66 18 13 is_stmt 1              ## 10869.cpp:18:13
	movl	-24(%rbp), %esi
	.loc	66 18 10 is_stmt 0              ## 10869.cpp:18:10
	movq	__ZNSt3__14coutE@GOTPCREL(%rip), %rdi
	callq	__ZNSt3__113basic_ostreamIcNS_11char_traitsIcEEElsEi
	movq	%rax, %rdi
	.loc	66 18 17                        ## 10869.cpp:18:17
	leaq	__ZNSt3__14endlB7v160006IcNS_11char_traitsIcEEEERNS_13basic_ostreamIT_T0_EES7_(%rip), %rsi
	callq	__ZNSt3__113basic_ostreamIcNS_11char_traitsIcEEElsB7v160006EPFRS3_S4_E
	.loc	66 19 13 is_stmt 1              ## 10869.cpp:19:13
	movl	-28(%rbp), %esi
	.loc	66 19 10 is_stmt 0              ## 10869.cpp:19:10
	movq	__ZNSt3__14coutE@GOTPCREL(%rip), %rdi
	callq	__ZNSt3__113basic_ostreamIcNS_11char_traitsIcEEElsEi
	movq	%rax, %rdi
	.loc	66 19 17                        ## 10869.cpp:19:17
	leaq	__ZNSt3__14endlB7v160006IcNS_11char_traitsIcEEEERNS_13basic_ostreamIT_T0_EES7_(%rip), %rsi
	callq	__ZNSt3__113basic_ostreamIcNS_11char_traitsIcEEElsB7v160006EPFRS3_S4_E
	.loc	66 21 1 is_stmt 1               ## 10869.cpp:21:1
	xorl	%eax, %eax
	addq	$32, %rsp
	popq	%rbp
	retq
Ltmp1:
Lfunc_end0:
	.cfi_endproc
                                        ## -- End function
	.private_extern	__ZNSt3__113basic_ostreamIcNS_11char_traitsIcEEElsB7v160006EPFRS3_S4_E ## -- Begin function _ZNSt3__113basic_ostreamIcNS_11char_traitsIcEEElsB7v160006EPFRS3_S4_E
	.globl	__ZNSt3__113basic_ostreamIcNS_11char_traitsIcEEElsB7v160006EPFRS3_S4_E
	.weak_definition	__ZNSt3__113basic_ostreamIcNS_11char_traitsIcEEElsB7v160006EPFRS3_S4_E
	.p2align	4, 0x90
__ZNSt3__113basic_ostreamIcNS_11char_traitsIcEEElsB7v160006EPFRS3_S4_E: ## @_ZNSt3__113basic_ostreamIcNS_11char_traitsIcEEElsB7v160006EPFRS3_S4_E
Lfunc_begin1:
	.file	67 "/Library/Developer/CommandLineTools/SDKs/MacOSX.sdk/usr/include/c++/v1" "ostream"
	.loc	67 222 0                        ## /Library/Developer/CommandLineTools/SDKs/MacOSX.sdk/usr/include/c++/v1/ostream:222:0
	.cfi_startproc
## %bb.0:
	pushq	%rbp
	.cfi_def_cfa_offset 16
	.cfi_offset %rbp, -16
	movq	%rsp, %rbp
	.cfi_def_cfa_register %rbp
	subq	$16, %rsp
	movq	%rdi, -8(%rbp)
	movq	%rsi, -16(%rbp)
	movq	-8(%rbp), %rdi
Ltmp2:
	.loc	67 222 14 prologue_end          ## /Library/Developer/CommandLineTools/SDKs/MacOSX.sdk/usr/include/c++/v1/ostream:222:14
	callq	*-16(%rbp)
	.loc	67 222 7 is_stmt 0              ## /Library/Developer/CommandLineTools/SDKs/MacOSX.sdk/usr/include/c++/v1/ostream:222:7
	addq	$16, %rsp
	popq	%rbp
	retq
Ltmp3:
Lfunc_end1:
	.cfi_endproc
	.file	68 "/Library/Developer/CommandLineTools/SDKs/MacOSX.sdk/usr/include/c++/v1" "streambuf"
	.file	69 "/Library/Developer/CommandLineTools/SDKs/MacOSX.sdk/usr/include/c++/v1" "iosfwd"
                                        ## -- End function
	.private_extern	__ZNSt3__14endlB7v160006IcNS_11char_traitsIcEEEERNS_13basic_ostreamIT_T0_EES7_ ## -- Begin function _ZNSt3__14endlB7v160006IcNS_11char_traitsIcEEEERNS_13basic_ostreamIT_T0_EES7_
	.globl	__ZNSt3__14endlB7v160006IcNS_11char_traitsIcEEEERNS_13basic_ostreamIT_T0_EES7_
	.weak_definition	__ZNSt3__14endlB7v160006IcNS_11char_traitsIcEEEERNS_13basic_ostreamIT_T0_EES7_
	.p2align	4, 0x90
__ZNSt3__14endlB7v160006IcNS_11char_traitsIcEEEERNS_13basic_ostreamIT_T0_EES7_: ## @_ZNSt3__14endlB7v160006IcNS_11char_traitsIcEEEERNS_13basic_ostreamIT_T0_EES7_
Lfunc_begin2:
	.loc	67 1037 0 is_stmt 1             ## /Library/Developer/CommandLineTools/SDKs/MacOSX.sdk/usr/include/c++/v1/ostream:1037:0
	.cfi_startproc
## %bb.0:
	pushq	%rbp
	.cfi_def_cfa_offset 16
	.cfi_offset %rbp, -16
	movq	%rsp, %rbp
	.cfi_def_cfa_register %rbp
	subq	$16, %rsp
	movq	%rdi, -8(%rbp)
Ltmp4:
	.loc	67 1038 5 prologue_end          ## /Library/Developer/CommandLineTools/SDKs/MacOSX.sdk/usr/include/c++/v1/ostream:1038:5
	movq	-8(%rbp), %rax
	movq	%rax, -16(%rbp)                 ## 8-byte Spill
	.loc	67 1038 14 is_stmt 0            ## /Library/Developer/CommandLineTools/SDKs/MacOSX.sdk/usr/include/c++/v1/ostream:1038:14
	movq	-8(%rbp), %rdi
	movq	(%rdi), %rax
	addq	-24(%rax), %rdi
	.loc	67 1038 19                      ## /Library/Developer/CommandLineTools/SDKs/MacOSX.sdk/usr/include/c++/v1/ostream:1038:19
	movl	$10, %esi
	callq	__ZNKSt3__19basic_iosIcNS_11char_traitsIcEEE5widenB7v160006Ec
	movq	-16(%rbp), %rdi                 ## 8-byte Reload
	.loc	67 1038 10                      ## /Library/Developer/CommandLineTools/SDKs/MacOSX.sdk/usr/include/c++/v1/ostream:1038:10
	movsbl	%al, %esi
	callq	__ZNSt3__113basic_ostreamIcNS_11char_traitsIcEEE3putEc
	.loc	67 1039 5 is_stmt 1             ## /Library/Developer/CommandLineTools/SDKs/MacOSX.sdk/usr/include/c++/v1/ostream:1039:5
	movq	-8(%rbp), %rdi
	.loc	67 1039 10 is_stmt 0            ## /Library/Developer/CommandLineTools/SDKs/MacOSX.sdk/usr/include/c++/v1/ostream:1039:10
	callq	__ZNSt3__113basic_ostreamIcNS_11char_traitsIcEEE5flushEv
	.loc	67 1040 12 is_stmt 1            ## /Library/Developer/CommandLineTools/SDKs/MacOSX.sdk/usr/include/c++/v1/ostream:1040:12
	movq	-8(%rbp), %rax
	.loc	67 1040 5 is_stmt 0             ## /Library/Developer/CommandLineTools/SDKs/MacOSX.sdk/usr/include/c++/v1/ostream:1040:5
	addq	$16, %rsp
	popq	%rbp
	retq
Ltmp5:
Lfunc_end2:
	.cfi_endproc
                                        ## -- End function
	.private_extern	__ZNKSt3__19basic_iosIcNS_11char_traitsIcEEE5widenB7v160006Ec ## -- Begin function _ZNKSt3__19basic_iosIcNS_11char_traitsIcEEE5widenB7v160006Ec
	.globl	__ZNKSt3__19basic_iosIcNS_11char_traitsIcEEE5widenB7v160006Ec
	.weak_definition	__ZNKSt3__19basic_iosIcNS_11char_traitsIcEEE5widenB7v160006Ec
	.p2align	4, 0x90
__ZNKSt3__19basic_iosIcNS_11char_traitsIcEEE5widenB7v160006Ec: ## @_ZNKSt3__19basic_iosIcNS_11char_traitsIcEEE5widenB7v160006Ec
Lfunc_begin3:
	.loc	1 776 0 is_stmt 1               ## /Library/Developer/CommandLineTools/SDKs/MacOSX.sdk/usr/include/c++/v1/ios:776:0
	.cfi_startproc
	.cfi_personality 155, ___gxx_personality_v0
	.cfi_lsda 16, Lexception0
## %bb.0:
	pushq	%rbp
	.cfi_def_cfa_offset 16
	.cfi_offset %rbp, -16
	movq	%rsp, %rbp
	.cfi_def_cfa_register %rbp
	subq	$64, %rsp
	movb	%sil, %al
	movq	%rdi, -8(%rbp)
	movb	%al, -9(%rbp)
	movq	-8(%rbp), %rsi
	leaq	-24(%rbp), %rdi
	movq	%rdi, -56(%rbp)                 ## 8-byte Spill
Ltmp14:
	.loc	1 777 46 prologue_end           ## /Library/Developer/CommandLineTools/SDKs/MacOSX.sdk/usr/include/c++/v1/ios:777:46
	callq	__ZNKSt3__18ios_base6getlocEv
	movq	-56(%rbp), %rdi                 ## 8-byte Reload
Ltmp6:
	.loc	1 777 12 is_stmt 0              ## /Library/Developer/CommandLineTools/SDKs/MacOSX.sdk/usr/include/c++/v1/ios:777:12
	callq	__ZNSt3__19use_facetB7v160006INS_5ctypeIcEEEERKT_RKNS_6localeE
Ltmp7:
	movq	%rax, -48(%rbp)                 ## 8-byte Spill
	jmp	LBB3_1
LBB3_1:
	.loc	1 0 12                          ## /Library/Developer/CommandLineTools/SDKs/MacOSX.sdk/usr/include/c++/v1/ios:0:12
	movq	-48(%rbp), %rdi                 ## 8-byte Reload
	.loc	1 777 62                        ## /Library/Developer/CommandLineTools/SDKs/MacOSX.sdk/usr/include/c++/v1/ios:777:62
	movsbl	-9(%rbp), %esi
Ltmp8:
	.loc	1 777 56                        ## /Library/Developer/CommandLineTools/SDKs/MacOSX.sdk/usr/include/c++/v1/ios:777:56
	callq	__ZNKSt3__15ctypeIcE5widenB7v160006Ec
Ltmp9:
	movb	%al, -57(%rbp)                  ## 1-byte Spill
	jmp	LBB3_2
LBB3_2:
	.loc	1 777 5                         ## /Library/Developer/CommandLineTools/SDKs/MacOSX.sdk/usr/include/c++/v1/ios:777:5
	leaq	-24(%rbp), %rdi
	callq	__ZNSt3__16localeD1Ev
	movb	-57(%rbp), %al                  ## 1-byte Reload
	movsbl	%al, %eax
	addq	$64, %rsp
	popq	%rbp
	retq
LBB3_3:
Ltmp10:
	.loc	1 0 5                           ## /Library/Developer/CommandLineTools/SDKs/MacOSX.sdk/usr/include/c++/v1/ios:0:5
	movq	%rax, %rcx
	.loc	1 778 1 is_stmt 1               ## /Library/Developer/CommandLineTools/SDKs/MacOSX.sdk/usr/include/c++/v1/ios:778:1
	movl	%edx, %eax
	movq	%rcx, -32(%rbp)
	movl	%eax, -36(%rbp)
Ltmp11:
	leaq	-24(%rbp), %rdi
	.loc	1 777 5                         ## /Library/Developer/CommandLineTools/SDKs/MacOSX.sdk/usr/include/c++/v1/ios:777:5
	callq	__ZNSt3__16localeD1Ev
Ltmp12:
	jmp	LBB3_4
LBB3_4:
	jmp	LBB3_5
LBB3_5:
	movq	-32(%rbp), %rdi
	callq	__Unwind_Resume
LBB3_6:
Ltmp13:
	.loc	1 0 5 is_stmt 0                 ## /Library/Developer/CommandLineTools/SDKs/MacOSX.sdk/usr/include/c++/v1/ios:0:5
	movq	%rax, %rdi
	.loc	1 777 5                         ## /Library/Developer/CommandLineTools/SDKs/MacOSX.sdk/usr/include/c++/v1/ios:777:5
	callq	___clang_call_terminate
Ltmp15:
Lfunc_end3:
	.cfi_endproc
	.section	__TEXT,__gcc_except_tab
	.p2align	2, 0x0
GCC_except_table3:
Lexception0:
	.byte	255                             ## @LPStart Encoding = omit
	.byte	155                             ## @TType Encoding = indirect pcrel sdata4
	.uleb128 Lttbase0-Lttbaseref0
Lttbaseref0:
	.byte	1                               ## Call site Encoding = uleb128
	.uleb128 Lcst_end0-Lcst_begin0
Lcst_begin0:
	.uleb128 Lfunc_begin3-Lfunc_begin3      ## >> Call Site 1 <<
	.uleb128 Ltmp6-Lfunc_begin3             ##   Call between Lfunc_begin3 and Ltmp6
	.byte	0                               ##     has no landing pad
	.byte	0                               ##   On action: cleanup
	.uleb128 Ltmp6-Lfunc_begin3             ## >> Call Site 2 <<
	.uleb128 Ltmp9-Ltmp6                    ##   Call between Ltmp6 and Ltmp9
	.uleb128 Ltmp10-Lfunc_begin3            ##     jumps to Ltmp10
	.byte	0                               ##   On action: cleanup
	.uleb128 Ltmp9-Lfunc_begin3             ## >> Call Site 3 <<
	.uleb128 Ltmp11-Ltmp9                   ##   Call between Ltmp9 and Ltmp11
	.byte	0                               ##     has no landing pad
	.byte	0                               ##   On action: cleanup
	.uleb128 Ltmp11-Lfunc_begin3            ## >> Call Site 4 <<
	.uleb128 Ltmp12-Ltmp11                  ##   Call between Ltmp11 and Ltmp12
	.uleb128 Ltmp13-Lfunc_begin3            ##     jumps to Ltmp13
	.byte	1                               ##   On action: 1
	.uleb128 Ltmp12-Lfunc_begin3            ## >> Call Site 5 <<
	.uleb128 Lfunc_end3-Ltmp12              ##   Call between Ltmp12 and Lfunc_end3
	.byte	0                               ##     has no landing pad
	.byte	0                               ##   On action: cleanup
Lcst_end0:
	.byte	1                               ## >> Action Record 1 <<
                                        ##   Catch TypeInfo 1
	.byte	0                               ##   No further actions
	.p2align	2, 0x0
                                        ## >> Catch TypeInfos <<
	.long	0                               ## TypeInfo 1
Lttbase0:
	.p2align	2, 0x0
                                        ## -- End function
	.section	__TEXT,__text,regular,pure_instructions
	.private_extern	__ZNSt3__19use_facetB7v160006INS_5ctypeIcEEEERKT_RKNS_6localeE ## -- Begin function _ZNSt3__19use_facetB7v160006INS_5ctypeIcEEEERKT_RKNS_6localeE
	.globl	__ZNSt3__19use_facetB7v160006INS_5ctypeIcEEEERKT_RKNS_6localeE
	.weak_definition	__ZNSt3__19use_facetB7v160006INS_5ctypeIcEEEERKT_RKNS_6localeE
	.p2align	4, 0x90
__ZNSt3__19use_facetB7v160006INS_5ctypeIcEEEERKT_RKNS_6localeE: ## @_ZNSt3__19use_facetB7v160006INS_5ctypeIcEEEERKT_RKNS_6localeE
Lfunc_begin4:
	.loc	3 257 0 is_stmt 1               ## /Library/Developer/CommandLineTools/SDKs/MacOSX.sdk/usr/include/c++/v1/__locale:257:0
	.cfi_startproc
## %bb.0:
	pushq	%rbp
	.cfi_def_cfa_offset 16
	.cfi_offset %rbp, -16
	movq	%rsp, %rbp
	.cfi_def_cfa_register %rbp
	subq	$16, %rsp
	movq	%rdi, -8(%rbp)
Ltmp16:
	.loc	3 258 40 prologue_end           ## /Library/Developer/CommandLineTools/SDKs/MacOSX.sdk/usr/include/c++/v1/__locale:258:40
	movq	-8(%rbp), %rdi
	.loc	3 258 44 is_stmt 0              ## /Library/Developer/CommandLineTools/SDKs/MacOSX.sdk/usr/include/c++/v1/__locale:258:44
	movq	__ZNSt3__15ctypeIcE2idE@GOTPCREL(%rip), %rsi
	callq	__ZNKSt3__16locale9use_facetERNS0_2idE
	.loc	3 258 5                         ## /Library/Developer/CommandLineTools/SDKs/MacOSX.sdk/usr/include/c++/v1/__locale:258:5
	addq	$16, %rsp
	popq	%rbp
	retq
Ltmp17:
Lfunc_end4:
	.cfi_endproc
                                        ## -- End function
	.private_extern	__ZNKSt3__15ctypeIcE5widenB7v160006Ec ## -- Begin function _ZNKSt3__15ctypeIcE5widenB7v160006Ec
	.globl	__ZNKSt3__15ctypeIcE5widenB7v160006Ec
	.weak_definition	__ZNKSt3__15ctypeIcE5widenB7v160006Ec
	.p2align	4, 0x90
__ZNKSt3__15ctypeIcE5widenB7v160006Ec:  ## @_ZNKSt3__15ctypeIcE5widenB7v160006Ec
Lfunc_begin5:
	.loc	3 739 0 is_stmt 1               ## /Library/Developer/CommandLineTools/SDKs/MacOSX.sdk/usr/include/c++/v1/__locale:739:0
	.cfi_startproc
## %bb.0:
	pushq	%rbp
	.cfi_def_cfa_offset 16
	.cfi_offset %rbp, -16
	movq	%rsp, %rbp
	.cfi_def_cfa_register %rbp
	subq	$16, %rsp
	movb	%sil, %al
	movq	%rdi, -8(%rbp)
	movb	%al, -9(%rbp)
	movq	-8(%rbp), %rdi
Ltmp18:
	.loc	3 740 25 prologue_end           ## /Library/Developer/CommandLineTools/SDKs/MacOSX.sdk/usr/include/c++/v1/__locale:740:25
	movb	-9(%rbp), %cl
	.loc	3 740 16 is_stmt 0              ## /Library/Developer/CommandLineTools/SDKs/MacOSX.sdk/usr/include/c++/v1/__locale:740:16
	movq	(%rdi), %rax
	movsbl	%cl, %esi
	callq	*56(%rax)
	.loc	3 740 9                         ## /Library/Developer/CommandLineTools/SDKs/MacOSX.sdk/usr/include/c++/v1/__locale:740:9
	movsbl	%al, %eax
	addq	$16, %rsp
	popq	%rbp
	retq
Ltmp19:
Lfunc_end5:
	.cfi_endproc
                                        ## -- End function
	.private_extern	___clang_call_terminate ## -- Begin function __clang_call_terminate
	.globl	___clang_call_terminate
	.weak_definition	___clang_call_terminate
	.p2align	4, 0x90
___clang_call_terminate:                ## @__clang_call_terminate
Lfunc_begin6:
	.cfi_startproc
## %bb.0:
	pushq	%rax
	.cfi_def_cfa_offset 16
	callq	___cxa_begin_catch
	callq	__ZSt9terminatev
Lfunc_end6:
	.cfi_endproc
                                        ## -- End function